; Function Attrs: mustprogress uwtable
define hidden noundef zeroext i1 @_ZNK3sat8elim_eqs13check_clausesERK7svectorINS_7literalEjE(ptr nocapture noundef nonnull readonly align 8 dereferenceable(24) %this, ptr nocapture noundef nonnull readonly align 8 dereferenceable(8) %roots) local_unnamed_addr #6 align 2 {
entry:
  %m_solver = getelementptr inbounds i8, ptr %this, i64 8
  %0 = load ptr, ptr %m_solver, align 8
  %m_clauses = getelementptr inbounds i8, ptr %0, i64 3376
  %1 = load ptr, ptr %m_clauses, align 8
  %cmp.i.i = icmp eq ptr %1, null
  br i1 %cmp.i.i, label %for.end, label %_ZN6vectorIPN3sat6clauseELb0EjE3endEv.exit

_ZN6vectorIPN3sat6clauseELb0EjE3endEv.exit:       ; preds = %entry
  %arrayidx.i.i = getelementptr inbounds i8, ptr %1, i64 -4
  %2 = load i32, ptr %arrayidx.i.i, align 4
  %3 = zext i32 %2 to i64
  %add.ptr.i = getelementptr inbounds ptr, ptr %1, i64 %3
  %cmp.not14 = icmp eq i32 %2, 0
  br i1 %cmp.not14, label %for.end, label %for.body

for.body:                                         ; preds = %_ZN6vectorIPN3sat6clauseELb0EjE3endEv.exit, %for.body
  %__begin1.015 = phi ptr [ %incdec.ptr, %for.body ], [ %1, %_ZN6vectorIPN3sat6clauseELb0EjE3endEv.exit ]
  %4 = load ptr, ptr %__begin1.015, align 8
  %call3 = tail call noundef zeroext i1 @_ZNK3sat8elim_eqs12check_clauseERKNS_6clauseERK7svectorINS_7literalEjE(ptr noundef nonnull align 8 dereferenceable(24) %this, ptr noundef nonnull align 4 dereferenceable(20) %4, ptr noundef nonnull align 8 dereferenceable(8) %roots)
  %incdec.ptr = getelementptr inbounds i8, ptr %__begin1.015, i64 8
  %cmp.not = icmp eq ptr %incdec.ptr, %add.ptr.i
  br i1 %cmp.not, label %for.end.loopexit, label %for.body

for.end.loopexit:                                 ; preds = %for.body
  %.pre = load ptr, ptr %m_solver, align 8
  br label %for.end

for.end:                                          ; preds = %entry, %for.end.loopexit, %_ZN6vectorIPN3sat6clauseELb0EjE3endEv.exit
  %5 = phi ptr [ %.pre, %for.end.loopexit ], [ %0, %_ZN6vectorIPN3sat6clauseELb0EjE3endEv.exit ], [ %0, %entry ]
  %m_learned = getelementptr inbounds i8, ptr %5, i64 3384
  %6 = load ptr, ptr %m_learned, align 8
  %cmp.i.i8 = icmp eq ptr %6, null
  br i1 %cmp.i.i8, label %return, label %_ZN6vectorIPN3sat6clauseELb0EjE3endEv.exit13

_ZN6vectorIPN3sat6clauseELb0EjE3endEv.exit13:     ; preds = %for.end
  %arrayidx.i.i10 = getelementptr inbounds i8, ptr %6, i64 -4
  %7 = load i32, ptr %arrayidx.i.i10, align 4
  %8 = zext i32 %7 to i64
  %add.ptr.i12 = getelementptr inbounds ptr, ptr %6, i64 %8
  %cmp11.not16 = icmp eq i32 %7, 0
  br i1 %cmp11.not16, label %return, label %for.body12

for.body12:                                       ; preds = %_ZN6vectorIPN3sat6clauseELb0EjE3endEv.exit13, %for.body12
  %__begin16.017 = phi ptr [ %incdec.ptr18, %for.body12 ], [ %6, %_ZN6vectorIPN3sat6clauseELb0EjE3endEv.exit13 ]
  %9 = load ptr, ptr %__begin16.017, align 8
  %call14 = tail call noundef zeroext i1 @_ZNK3sat8elim_eqs12check_clauseERKNS_6clauseERK7svectorINS_7literalEjE(ptr noundef nonnull align 8 dereferenceable(24) %this, ptr noundef nonnull align 4 dereferenceable(20) %9, ptr noundef nonnull align 8 dereferenceable(8) %roots)
  %incdec.ptr18 = getelementptr inbounds i8, ptr %__begin16.017, i64 8
  %cmp11.not = icmp eq ptr %incdec.ptr18, %add.ptr.i12
  br i1 %cmp11.not, label %return, label %for.body12

return:                                           ; preds = %for.body12, %for.end, %_ZN6vectorIPN3sat6clauseELb0EjE3endEv.exit13
  ret i1 true
}